target datalayout = "e-m:e-p270:32:32-p271:32:32-p272:64:64-i64:64-i128:128-f80:128-n8:16:32:64-S128"
target triple = "x86_64-unknown-linux-gnu"

%"class.icu_75::UTF16CollationIterator" = type { %"class.icu_75::CollationIterator.base", ptr, ptr, ptr }
%"class.icu_75::CollationIterator.base" = type <{ %"class.icu_75::UObject", ptr, ptr, %"class.icu_75::CollationIterator::CEBuffer", i32, [4 x i8], ptr, i32, i8 }>
%"class.icu_75::UObject" = type { ptr }
%"class.icu_75::CollationIterator::CEBuffer" = type { i32, %"class.icu_75::MaybeStackArray.0" }
%"class.icu_75::MaybeStackArray.0" = type { ptr, i32, i8, [40 x i64] }
%"class.icu_75::FCDUTF16CollationIterator" = type <{ %"class.icu_75::UTF16CollationIterator", ptr, ptr, ptr, ptr, ptr, %"class.icu_75::UnicodeString", i8, [7 x i8] }>
%"class.icu_75::UnicodeString" = type { %"class.icu_75::Replaceable", %"union.icu_75::UnicodeString::StackBufferOrFields" }
%"class.icu_75::Replaceable" = type { %"class.icu_75::UObject" }
%"union.icu_75::UnicodeString::StackBufferOrFields" = type { %struct.anon.1, [32 x i8] }
%struct.anon.1 = type { i16, i32, i32, ptr }

; Function Attrs: mustprogress nounwind uwtable
define void @_ZN6icu_7525FCDUTF16CollationIterator15switchToForwardEv(ptr noundef nonnull align 8 dereferenceable(521) %this) #0 align 2 {
entry:
  %this.addr = alloca ptr, align 8
  store ptr %this, ptr %this.addr, align 8
  %this1 = load ptr, ptr %this.addr, align 8
  %checkDir = getelementptr inbounds %"class.icu_75::FCDUTF16CollationIterator", ptr %this1, i32 0, i32 7
  %0 = load i8, ptr %checkDir, align 8
  %conv = sext i8 %0 to i32
  %cmp = icmp slt i32 %conv, 0
  br i1 %cmp, label %if.then, label %if.else7

if.then:                                          ; preds = %entry
  %pos = getelementptr inbounds %"class.icu_75::UTF16CollationIterator", ptr %this1, i32 0, i32 2
  %1 = load ptr, ptr %pos, align 8
  %segmentStart = getelementptr inbounds %"class.icu_75::FCDUTF16CollationIterator", ptr %this1, i32 0, i32 2
  store ptr %1, ptr %segmentStart, align 8
  %start = getelementptr inbounds %"class.icu_75::UTF16CollationIterator", ptr %this1, i32 0, i32 1
  store ptr %1, ptr %start, align 8
  %pos2 = getelementptr inbounds %"class.icu_75::UTF16CollationIterator", ptr %this1, i32 0, i32 2
  %2 = load ptr, ptr %pos2, align 8
  %segmentLimit = getelementptr inbounds %"class.icu_75::FCDUTF16CollationIterator", ptr %this1, i32 0, i32 3
  %3 = load ptr, ptr %segmentLimit, align 8
  %cmp3 = icmp eq ptr %2, %3
  br i1 %cmp3, label %if.then4, label %if.else

if.then4:                                         ; preds = %if.then
  %rawLimit = getelementptr inbounds %"class.icu_75::FCDUTF16CollationIterator", ptr %this1, i32 0, i32 4
  %4 = load ptr, ptr %rawLimit, align 8
  %limit = getelementptr inbounds %"class.icu_75::UTF16CollationIterator", ptr %this1, i32 0, i32 3
  store ptr %4, ptr %limit, align 8
  %checkDir5 = getelementptr inbounds %"class.icu_75::FCDUTF16CollationIterator", ptr %this1, i32 0, i32 7
  store i8 1, ptr %checkDir5, align 8
  br label %if.end

if.else:                                          ; preds = %if.then
  %checkDir6 = getelementptr inbounds %"class.icu_75::FCDUTF16CollationIterator", ptr %this1, i32 0, i32 7
  store i8 0, ptr %checkDir6, align 8
  br label %if.end

if.end:                                           ; preds = %if.else, %if.then4
  br label %if.end21

if.else7:                                         ; preds = %entry
  %start8 = getelementptr inbounds %"class.icu_75::UTF16CollationIterator", ptr %this1, i32 0, i32 1
  %5 = load ptr, ptr %start8, align 8
  %segmentStart9 = getelementptr inbounds %"class.icu_75::FCDUTF16CollationIterator", ptr %this1, i32 0, i32 2
  %6 = load ptr, ptr %segmentStart9, align 8
  %cmp10 = icmp eq ptr %5, %6
  br i1 %cmp10, label %if.then11, label %if.else12

if.then11:                                        ; preds = %if.else7
  br label %if.end17

if.else12:                                        ; preds = %if.else7
  %segmentLimit13 = getelementptr inbounds %"class.icu_75::FCDUTF16CollationIterator", ptr %this1, i32 0, i32 3
  %7 = load ptr, ptr %segmentLimit13, align 8
  %segmentStart14 = getelementptr inbounds %"class.icu_75::FCDUTF16CollationIterator", ptr %this1, i32 0, i32 2
  store ptr %7, ptr %segmentStart14, align 8
  %start15 = getelementptr inbounds %"class.icu_75::UTF16CollationIterator", ptr %this1, i32 0, i32 1
  store ptr %7, ptr %start15, align 8
  %pos16 = getelementptr inbounds %"class.icu_75::UTF16CollationIterator", ptr %this1, i32 0, i32 2
  store ptr %7, ptr %pos16, align 8
  br label %if.end17

if.end17:                                         ; preds = %if.else12, %if.then11
  %rawLimit18 = getelementptr inbounds %"class.icu_75::FCDUTF16CollationIterator", ptr %this1, i32 0, i32 4
  %8 = load ptr, ptr %rawLimit18, align 8
  %limit19 = getelementptr inbounds %"class.icu_75::UTF16CollationIterator", ptr %this1, i32 0, i32 3
  store ptr %8, ptr %limit19, align 8
  %checkDir20 = getelementptr inbounds %"class.icu_75::FCDUTF16CollationIterator", ptr %this1, i32 0, i32 7
  store i8 1, ptr %checkDir20, align 8
  br label %if.end21

if.end21:                                         ; preds = %if.end17, %if.end
  ret void
}