; Function Attrs: mustprogress nofree norecurse nosync nounwind willreturn memory(argmem: readwrite) uwtable
define void @_ZN6icu_7525FCDUTF16CollationIterator15switchToForwardEv(ptr nocapture noundef nonnull align 8 dereferenceable(521) %this) local_unnamed_addr #9 align 2 {
entry:
  %checkDir = getelementptr inbounds i8, ptr %this, i64 520
  %0 = load i8, ptr %checkDir, align 8
  %cmp = icmp slt i8 %0, 0
  %segmentStart = getelementptr inbounds i8, ptr %this, i64 424
  br i1 %cmp, label %if.then, label %if.else7

if.then:                                          ; preds = %entry
  %pos = getelementptr inbounds i8, ptr %this, i64 400
  %1 = load ptr, ptr %pos, align 8
  store ptr %1, ptr %segmentStart, align 8
  %start = getelementptr inbounds i8, ptr %this, i64 392
  store ptr %1, ptr %start, align 8
  %segmentLimit = getelementptr inbounds i8, ptr %this, i64 432
  %2 = load ptr, ptr %segmentLimit, align 8
  %cmp3 = icmp eq ptr %1, %2
  br i1 %cmp3, label %if.end21.sink.split, label %if.end21

if.else7:                                         ; preds = %entry
  %start8 = getelementptr inbounds i8, ptr %this, i64 392
  %3 = load ptr, ptr %start8, align 8
  %4 = load ptr, ptr %segmentStart, align 8
  %cmp10 = icmp eq ptr %3, %4
  br i1 %cmp10, label %if.end21.sink.split, label %if.else12

if.else12:                                        ; preds = %if.else7
  %segmentLimit13 = getelementptr inbounds i8, ptr %this, i64 432
  %5 = load ptr, ptr %segmentLimit13, align 8
  store ptr %5, ptr %segmentStart, align 8
  store ptr %5, ptr %start8, align 8
  %pos16 = getelementptr inbounds i8, ptr %this, i64 400
  store ptr %5, ptr %pos16, align 8
  br label %if.end21.sink.split

if.end21.sink.split:                              ; preds = %if.else12, %if.else7, %if.then
  %rawLimit = getelementptr inbounds i8, ptr %this, i64 440
  %6 = load ptr, ptr %rawLimit, align 8
  %limit = getelementptr inbounds i8, ptr %this, i64 408
  store ptr %6, ptr %limit, align 8
  br label %if.end21

if.end21:                                         ; preds = %if.end21.sink.split, %if.then
  %.sink = phi i8 [ 0, %if.then ], [ 1, %if.end21.sink.split ]
  store i8 %.sink, ptr %checkDir, align 8
  ret void
}